target datalayout = "e-m:e-p270:32:32-p271:32:32-p272:64:64-i64:64-i128:128-f80:128-n8:16:32:64-S128"
target triple = "x86_64-pc-linux-gnu"

%struct.AVFilterPad = type { ptr, i32, i32, %union.anon, ptr, ptr, ptr }
%union.anon = type { ptr }
%struct.AVFilterContext = type { ptr, ptr, ptr, ptr, ptr, i32, ptr, ptr, i32, ptr, ptr, i32, i32, ptr, ptr, ptr, ptr, i32, ptr, i32, i32 }
%struct.ExtractPlanesContext = type { ptr, i32, [4 x i32], [4 x i32], i32, i32, i32 }

@.str.25 = private unnamed_addr constant [6 x i8] c"out%d\00", align 1

; Function Attrs: cold nounwind optsize uwtable
define internal i32 @init(ptr noundef %0) #0 {
  %2 = alloca i32, align 4
  %3 = alloca ptr, align 8
  %4 = alloca ptr, align 8
  %5 = alloca i32, align 4
  %6 = alloca i32, align 4
  %7 = alloca i32, align 4
  %8 = alloca ptr, align 8
  %9 = alloca %struct.AVFilterPad, align 8
  %10 = alloca i32, align 4
  store ptr %0, ptr %3, align 8, !tbaa !4
  call void @llvm.lifetime.start.p0(i64 8, ptr %4) #7
  %11 = load ptr, ptr %3, align 8, !tbaa !4
  %12 = getelementptr inbounds nuw %struct.AVFilterContext, ptr %11, i32 0, i32 9
  %13 = load ptr, ptr %12, align 8, !tbaa !9
  store ptr %13, ptr %4, align 8, !tbaa !22
  call void @llvm.lifetime.start.p0(i64 4, ptr %5) #7
  %14 = load ptr, ptr %4, align 8, !tbaa !22
  %15 = getelementptr inbounds nuw %struct.ExtractPlanesContext, ptr %14, i32 0, i32 1
  %16 = load i32, ptr %15, align 8, !tbaa !24
  %17 = and i32 %16, 15
  %18 = load ptr, ptr %4, align 8, !tbaa !22
  %19 = getelementptr inbounds nuw %struct.ExtractPlanesContext, ptr %18, i32 0, i32 1
  %20 = load i32, ptr %19, align 8, !tbaa !24
  %21 = ashr i32 %20, 4
  %22 = or i32 %17, %21
  store i32 %22, ptr %5, align 4, !tbaa !26
  call void @llvm.lifetime.start.p0(i64 4, ptr %6) #7
  call void @llvm.lifetime.start.p0(i64 4, ptr %7) #7
  store i32 0, ptr %6, align 4, !tbaa !26
  br label %23

23:                                               ; preds = %63, %1
  %24 = load i32, ptr %6, align 4, !tbaa !26
  %25 = icmp slt i32 %24, 4
  br i1 %25, label %26, label %66

26:                                               ; preds = %23
  call void @llvm.lifetime.start.p0(i64 8, ptr %8) #7
  call void @llvm.lifetime.start.p0(i64 48, ptr %9) #7
  call void @llvm.memset.p0.i64(ptr align 8 %9, i8 0, i64 48, i1 false)
  %27 = load i32, ptr %5, align 4, !tbaa !26
  %28 = load i32, ptr %6, align 4, !tbaa !26
  %29 = shl i32 1, %28
  %30 = and i32 %27, %29
  %31 = icmp ne i32 %30, 0
  br i1 %31, label %33, label %32

32:                                               ; preds = %26
  store i32 4, ptr %10, align 4
  br label %60

33:                                               ; preds = %26
  %34 = load ptr, ptr %3, align 8, !tbaa !4
  %35 = getelementptr inbounds nuw %struct.AVFilterContext, ptr %34, i32 0, i32 8
  %36 = load i32, ptr %35, align 8, !tbaa !27
  %37 = call ptr (ptr, ...) @av_asprintf(ptr noundef @.str.25, i32 noundef %36)
  store ptr %37, ptr %8, align 8, !tbaa !28
  %38 = load ptr, ptr %8, align 8, !tbaa !28
  %39 = icmp ne ptr %38, null
  br i1 %39, label %41, label %40

40:                                               ; preds = %33
  store i32 -12, ptr %2, align 4
  store i32 1, ptr %10, align 4
  br label %60

41:                                               ; preds = %33
  %42 = load i32, ptr %6, align 4, !tbaa !26
  %43 = load ptr, ptr %4, align 8, !tbaa !22
  %44 = getelementptr inbounds nuw %struct.ExtractPlanesContext, ptr %43, i32 0, i32 2
  %45 = load ptr, ptr %3, align 8, !tbaa !4
  %46 = getelementptr inbounds nuw %struct.AVFilterContext, ptr %45, i32 0, i32 8
  %47 = load i32, ptr %46, align 8, !tbaa !27
  %48 = zext i32 %47 to i64
  %49 = getelementptr inbounds nuw [4 x i32], ptr %44, i64 0, i64 %48
  store i32 %42, ptr %49, align 4, !tbaa !26
  %50 = load ptr, ptr %8, align 8, !tbaa !28
  %51 = getelementptr inbounds nuw %struct.AVFilterPad, ptr %9, i32 0, i32 0
  store ptr %50, ptr %51, align 8, !tbaa !29
  %52 = getelementptr inbounds nuw %struct.AVFilterPad, ptr %9, i32 0, i32 1
  store i32 0, ptr %52, align 8, !tbaa !31
  %53 = getelementptr inbounds nuw %struct.AVFilterPad, ptr %9, i32 0, i32 6
  store ptr @config_output, ptr %53, align 8, !tbaa !32
  %54 = load ptr, ptr %3, align 8, !tbaa !4
  %55 = call i32 @ff_append_outpad_free_name(ptr noundef %54, ptr noundef %9)
  store i32 %55, ptr %7, align 4, !tbaa !26
  %56 = icmp slt i32 %55, 0
  br i1 %56, label %57, label %59

57:                                               ; preds = %41
  %58 = load i32, ptr %7, align 4, !tbaa !26
  store i32 %58, ptr %2, align 4
  store i32 1, ptr %10, align 4
  br label %60

59:                                               ; preds = %41
  store i32 0, ptr %10, align 4
  br label %60

60:                                               ; preds = %59, %57, %40, %32
  call void @llvm.lifetime.end.p0(i64 48, ptr %9) #7
  call void @llvm.lifetime.end.p0(i64 8, ptr %8) #7
  %61 = load i32, ptr %10, align 4
  switch i32 %61, label %67 [
    i32 0, label %62
    i32 4, label %63
  ]

62:                                               ; preds = %60
  br label %63

63:                                               ; preds = %62, %60
  %64 = load i32, ptr %6, align 4, !tbaa !26
  %65 = add nsw i32 %64, 1
  store i32 %65, ptr %6, align 4, !tbaa !26
  br label %23, !llvm.loop !33

66:                                               ; preds = %23
  store i32 0, ptr %2, align 4
  store i32 1, ptr %10, align 4
  br label %67

67:                                               ; preds = %66, %60
  call void @llvm.lifetime.end.p0(i64 4, ptr %7) #7
  call void @llvm.lifetime.end.p0(i64 4, ptr %6) #7
  call void @llvm.lifetime.end.p0(i64 4, ptr %5) #7
  call void @llvm.lifetime.end.p0(i64 8, ptr %4) #7
  %68 = load i32, ptr %2, align 4
  ret i32 %68
}