; Function Attrs: cold nounwind optsize uwtable
define internal range(i32 -2147483648, 1) i32 @init(ptr noundef %0) #0 {
  %2 = alloca %struct.AVFilterPad, align 8
  %3 = getelementptr inbounds nuw i8, ptr %0, i64 72
  %4 = load ptr, ptr %3, align 8, !tbaa !4
  %5 = getelementptr inbounds nuw i8, ptr %4, i64 8
  %6 = load i32, ptr %5, align 8, !tbaa !20
  %7 = lshr i32 %6, 4
  %8 = or i32 %7, %6
  %9 = getelementptr inbounds nuw i8, ptr %0, i64 64
  %10 = getelementptr inbounds nuw i8, ptr %4, i64 12
  %11 = getelementptr inbounds nuw i8, ptr %2, i64 8
  %12 = getelementptr inbounds nuw i8, ptr %2, i64 40
  br label %13

13:                                               ; preds = %1, %25
  %.01723 = phi i32 [ 0, %1 ], [ %26, %25 ]
  call void @llvm.lifetime.start.p0(i64 48, ptr nonnull %2) #6
  call void @llvm.memset.p0.i64(ptr noundef nonnull align 8 dereferenceable(48) %2, i8 0, i64 48, i1 false)
  %14 = shl nuw nsw i32 1, %.01723
  %15 = and i32 %14, %8
  %.not = icmp eq i32 %15, 0
  br i1 %.not, label %25, label %16

16:                                               ; preds = %13
  %17 = load i32, ptr %9, align 8, !tbaa !22
  %18 = call ptr (ptr, ...) @av_asprintf(ptr noundef nonnull @.str.25, i32 noundef %17) #6
  %.not20 = icmp eq ptr %18, null
  br i1 %.not20, label %.thread, label %19

19:                                               ; preds = %16
  %20 = load i32, ptr %9, align 8, !tbaa !22
  %21 = zext i32 %20 to i64
  %22 = getelementptr inbounds nuw [4 x i32], ptr %10, i64 0, i64 %21
  store i32 %.01723, ptr %22, align 4, !tbaa !23
  store ptr %18, ptr %2, align 8, !tbaa !24
  store i32 0, ptr %11, align 8, !tbaa !26
  store ptr @config_output, ptr %12, align 8, !tbaa !27
  %23 = call i32 @ff_append_outpad_free_name(ptr noundef nonnull %0, ptr noundef nonnull %2) #6
  %24 = icmp slt i32 %23, 0
  br i1 %24, label %.thread, label %25

.thread:                                          ; preds = %16, %19
  %.1.ph = phi i32 [ -12, %16 ], [ %23, %19 ]
  call void @llvm.lifetime.end.p0(i64 48, ptr nonnull %2) #6
  br label %.loopexit

25:                                               ; preds = %13, %19
  call void @llvm.lifetime.end.p0(i64 48, ptr nonnull %2) #6
  %26 = add nuw nsw i32 %.01723, 1
  %exitcond.not = icmp eq i32 %26, 4
  br i1 %exitcond.not, label %.loopexit, label %13, !llvm.loop !28

.loopexit:                                        ; preds = %25, %.thread
  %.2 = phi i32 [ %.1.ph, %.thread ], [ 0, %25 ]
  ret i32 %.2
}